target datalayout = "e-m:e-p270:32:32-p271:32:32-p272:64:64-i64:64-i128:128-f80:128-n8:16:32:64-S128"
target triple = "x86_64-pc-linux-gnu"

@Curl_cfree = external global ptr, align 8
@Curl_cstrdup = external global ptr, align 8

; Function Attrs: nounwind uwtable
define dso_local i32 @Curl_setstropt(ptr noundef %0, ptr noundef %1) #0 {
  %3 = alloca i32, align 4
  %4 = alloca ptr, align 8
  %5 = alloca ptr, align 8
  store ptr %0, ptr %4, align 8, !tbaa !4
  store ptr %1, ptr %5, align 8, !tbaa !9
  br label %6

6:                                                ; preds = %2
  %7 = load ptr, ptr @Curl_cfree, align 8, !tbaa !11
  %8 = load ptr, ptr %4, align 8, !tbaa !4
  %9 = load ptr, ptr %8, align 8, !tbaa !9
  call void %7(ptr noundef %9)
  %10 = load ptr, ptr %4, align 8, !tbaa !4
  store ptr null, ptr %10, align 8, !tbaa !9
  br label %11

11:                                               ; preds = %6
  %12 = load ptr, ptr %5, align 8, !tbaa !9
  %13 = icmp ne ptr %12, null
  br i1 %13, label %14, label %29

14:                                               ; preds = %11
  %15 = load ptr, ptr %5, align 8, !tbaa !9
  %16 = call i64 @strlen(ptr noundef %15) #6
  %17 = icmp ugt i64 %16, 8000000
  br i1 %17, label %18, label %19

18:                                               ; preds = %14
  store i32 43, ptr %3, align 4
  br label %30

19:                                               ; preds = %14
  %20 = load ptr, ptr @Curl_cstrdup, align 8, !tbaa !11
  %21 = load ptr, ptr %5, align 8, !tbaa !9
  %22 = call ptr %20(ptr noundef %21)
  %23 = load ptr, ptr %4, align 8, !tbaa !4
  store ptr %22, ptr %23, align 8, !tbaa !9
  %24 = load ptr, ptr %4, align 8, !tbaa !4
  %25 = load ptr, ptr %24, align 8, !tbaa !9
  %26 = icmp ne ptr %25, null
  br i1 %26, label %28, label %27

27:                                               ; preds = %19
  store i32 27, ptr %3, align 4
  br label %30

28:                                               ; preds = %19
  br label %29

29:                                               ; preds = %28, %11
  store i32 0, ptr %3, align 4
  br label %30

30:                                               ; preds = %29, %27, %18
  %31 = load i32, ptr %3, align 4
  ret i32 %31
}